target datalayout = "e-m:e-p270:32:32-p271:32:32-p272:64:64-i64:64-i128:128-f80:128-n8:16:32:64-S128"
target triple = "x86_64-pc-linux-gnu"

%"struct.faiss::(anonymous namespace)::Comb" = type <{ %"class.std::vector", i32, [4 x i8] }>
%"class.std::vector" = type { %"struct.std::_Vector_base" }
%"struct.std::_Vector_base" = type { %"struct.std::_Vector_base<unsigned long, std::allocator<unsigned long>>::_Vector_impl" }
%"struct.std::_Vector_base<unsigned long, std::allocator<unsigned long>>::_Vector_impl" = type { %"struct.std::_Vector_base<unsigned long, std::allocator<unsigned long>>::_Vector_impl_data" }
%"struct.std::_Vector_base<unsigned long, std::allocator<unsigned long>>::_Vector_impl_data" = type { ptr, ptr, ptr }
%"struct.faiss::Repeats" = type { i32, %"class.std::vector.0" }
%"class.std::vector.0" = type { %"struct.std::_Vector_base.1" }
%"struct.std::_Vector_base.1" = type { %"struct.std::_Vector_base<faiss::Repeat, std::allocator<faiss::Repeat>>::_Vector_impl" }
%"struct.std::_Vector_base<faiss::Repeat, std::allocator<faiss::Repeat>>::_Vector_impl" = type { %"struct.std::_Vector_base<faiss::Repeat, std::allocator<faiss::Repeat>>::_Vector_impl_data" }
%"struct.std::_Vector_base<faiss::Repeat, std::allocator<faiss::Repeat>>::_Vector_impl_data" = type { ptr, ptr, ptr }
%"struct.faiss::Repeat" = type { float, i32 }

@_ZN5faiss12_GLOBAL__N_14combE = internal global %"struct.faiss::(anonymous namespace)::Comb" zeroinitializer, align 8

; Function Attrs: mustprogress nounwind uwtable
define linkonce_odr noundef nonnull align 8 dereferenceable(8) ptr @_ZNKSt6vectorImSaImEEixEm(ptr noundef nonnull align 8 dereferenceable(24) %0, i64 noundef %1) #4 comdat align 2 {
  %3 = alloca ptr, align 8
  %4 = alloca i64, align 8
  store ptr %0, ptr %3, align 8, !tbaa !82
  store i64 %1, ptr %4, align 8, !tbaa !11
  %5 = load ptr, ptr %3, align 8
  %6 = getelementptr inbounds nuw %"struct.std::_Vector_base", ptr %5, i32 0, i32 0
  %7 = getelementptr inbounds nuw %"struct.std::_Vector_base<unsigned long, std::allocator<unsigned long>>::_Vector_impl_data", ptr %6, i32 0, i32 0
  %8 = load ptr, ptr %7, align 8, !tbaa !84
  %9 = load i64, ptr %4, align 8, !tbaa !11
  %10 = getelementptr inbounds nuw i64, ptr %8, i64 %9
  ret ptr %10
}

; Function Attrs: mustprogress nounwind uwtable
define internal noundef i64 @_ZNK5faiss12_GLOBAL__N_14CombclEii(ptr noundef nonnull align 8 dereferenceable(28) %0, i32 noundef %1, i32 noundef %2) #4 align 2 {
  %4 = alloca i64, align 8
  %5 = alloca ptr, align 8
  %6 = alloca i32, align 4
  %7 = alloca i32, align 4
  store ptr %0, ptr %5, align 8, !tbaa !76
  store i32 %1, ptr %6, align 4, !tbaa !13
  store i32 %2, ptr %7, align 4, !tbaa !13
  %8 = load ptr, ptr %5, align 8
  %9 = load i32, ptr %7, align 4, !tbaa !13
  %10 = load i32, ptr %6, align 4, !tbaa !13
  %11 = icmp sgt i32 %9, %10
  br i1 %11, label %12, label %13

12:                                               ; preds = %3
  store i64 0, ptr %4, align 8
  br label %24

13:                                               ; preds = %3
  %14 = getelementptr inbounds nuw %"struct.faiss::(anonymous namespace)::Comb", ptr %8, i32 0, i32 0
  %15 = load i32, ptr %6, align 4, !tbaa !13
  %16 = getelementptr inbounds nuw %"struct.faiss::(anonymous namespace)::Comb", ptr %8, i32 0, i32 1
  %17 = load i32, ptr %16, align 8, !tbaa !78
  %18 = mul nsw i32 %15, %17
  %19 = load i32, ptr %7, align 4, !tbaa !13
  %20 = add nsw i32 %18, %19
  %21 = sext i32 %20 to i64
  %22 = call noundef nonnull align 8 dereferenceable(8) ptr @_ZNKSt6vectorImSaImEEixEm(ptr noundef nonnull align 8 dereferenceable(24) %14, i64 noundef %21) #3
  %23 = load i64, ptr %22, align 8, !tbaa !11
  store i64 %23, ptr %4, align 8
  br label %24

24:                                               ; preds = %13, %12
  %25 = load i64, ptr %4, align 8
  ret i64 %25
}

; Function Attrs: mustprogress nounwind uwtable
define linkonce_odr noundef nonnull align 4 dereferenceable(8) ptr @_ZNKSt6vectorIN5faiss6RepeatESaIS1_EEixEm(ptr noundef nonnull align 8 dereferenceable(24) %0, i64 noundef %1) #4 comdat align 2 {
  %3 = alloca ptr, align 8
  %4 = alloca i64, align 8
  store ptr %0, ptr %3, align 8, !tbaa !128
  store i64 %1, ptr %4, align 8, !tbaa !11
  %5 = load ptr, ptr %3, align 8
  %6 = getelementptr inbounds nuw %"struct.std::_Vector_base.1", ptr %5, i32 0, i32 0
  %7 = getelementptr inbounds nuw %"struct.std::_Vector_base<faiss::Repeat, std::allocator<faiss::Repeat>>::_Vector_impl_data", ptr %6, i32 0, i32 0
  %8 = load ptr, ptr %7, align 8, !tbaa !131
  %9 = load i64, ptr %4, align 8, !tbaa !11
  %10 = getelementptr inbounds nuw %"struct.faiss::Repeat", ptr %8, i64 %9
  ret ptr %10
}

; Function Attrs: mustprogress nounwind uwtable
define linkonce_odr noundef i64 @_ZNKSt6vectorIN5faiss6RepeatESaIS1_EE4sizeEv(ptr noundef nonnull align 8 dereferenceable(24) %0) #4 comdat align 2 {
  %2 = alloca ptr, align 8
  store ptr %0, ptr %2, align 8, !tbaa !128
  %3 = load ptr, ptr %2, align 8
  %4 = getelementptr inbounds nuw %"struct.std::_Vector_base.1", ptr %3, i32 0, i32 0
  %5 = getelementptr inbounds nuw %"struct.std::_Vector_base<faiss::Repeat, std::allocator<faiss::Repeat>>::_Vector_impl_data", ptr %4, i32 0, i32 1
  %6 = load ptr, ptr %5, align 8, !tbaa !130
  %7 = getelementptr inbounds nuw %"struct.std::_Vector_base.1", ptr %3, i32 0, i32 0
  %8 = getelementptr inbounds nuw %"struct.std::_Vector_base<faiss::Repeat, std::allocator<faiss::Repeat>>::_Vector_impl_data", ptr %7, i32 0, i32 0
  %9 = load ptr, ptr %8, align 8, !tbaa !131
  %10 = ptrtoint ptr %6 to i64
  %11 = ptrtoint ptr %9 to i64
  %12 = sub i64 %10, %11
  %13 = sdiv exact i64 %12, 8
  ret i64 %13
}

; Function Attrs: mustprogress uwtable
define noundef i64 @_ZNK5faiss7Repeats5countEv(ptr noundef nonnull align 8 dereferenceable(32) %0) #0 align 2 {
  %2 = alloca ptr, align 8
  %3 = alloca i64, align 8
  %4 = alloca i32, align 4
  %5 = alloca i32, align 4
  store ptr %0, ptr %2, align 8, !tbaa !120
  %6 = load ptr, ptr %2, align 8
  call void @llvm.lifetime.start.p0(i64 8, ptr %3) #3
  store i64 1, ptr %3, align 8, !tbaa !11
  call void @llvm.lifetime.start.p0(i64 4, ptr %4) #3
  %7 = getelementptr inbounds nuw %"struct.faiss::Repeats", ptr %6, i32 0, i32 0
  %8 = load i32, ptr %7, align 8, !tbaa !122
  store i32 %8, ptr %4, align 4, !tbaa !13
  call void @llvm.lifetime.start.p0(i64 4, ptr %5) #3
  store i32 0, ptr %5, align 4, !tbaa !13
  br label %9

9:                                                ; preds = %35, %1
  %10 = load i32, ptr %5, align 4, !tbaa !13
  %11 = sext i32 %10 to i64
  %12 = getelementptr inbounds nuw %"struct.faiss::Repeats", ptr %6, i32 0, i32 1
  %13 = call noundef i64 @_ZNKSt6vectorIN5faiss6RepeatESaIS1_EE4sizeEv(ptr noundef nonnull align 8 dereferenceable(24) %12) #3
  %14 = icmp ult i64 %11, %13
  br i1 %14, label %16, label %15

15:                                               ; preds = %9
  call void @llvm.lifetime.end.p0(i64 4, ptr %5) #3
  br label %38

16:                                               ; preds = %9
  %17 = load i32, ptr %4, align 4, !tbaa !13
  %18 = getelementptr inbounds nuw %"struct.faiss::Repeats", ptr %6, i32 0, i32 1
  %19 = load i32, ptr %5, align 4, !tbaa !13
  %20 = sext i32 %19 to i64
  %21 = call noundef nonnull align 4 dereferenceable(8) ptr @_ZNKSt6vectorIN5faiss6RepeatESaIS1_EEixEm(ptr noundef nonnull align 8 dereferenceable(24) %18, i64 noundef %20) #3
  %22 = getelementptr inbounds nuw %"struct.faiss::Repeat", ptr %21, i32 0, i32 1
  %23 = load i32, ptr %22, align 4, !tbaa !125
  %24 = call noundef i64 @_ZNK5faiss12_GLOBAL__N_14CombclEii(ptr noundef nonnull align 8 dereferenceable(28) @_ZN5faiss12_GLOBAL__N_14combE, i32 noundef %17, i32 noundef %23)
  %25 = load i64, ptr %3, align 8, !tbaa !11
  %26 = mul i64 %25, %24
  store i64 %26, ptr %3, align 8, !tbaa !11
  %27 = getelementptr inbounds nuw %"struct.faiss::Repeats", ptr %6, i32 0, i32 1
  %28 = load i32, ptr %5, align 4, !tbaa !13
  %29 = sext i32 %28 to i64
  %30 = call noundef nonnull align 4 dereferenceable(8) ptr @_ZNKSt6vectorIN5faiss6RepeatESaIS1_EEixEm(ptr noundef nonnull align 8 dereferenceable(24) %27, i64 noundef %29) #3
  %31 = getelementptr inbounds nuw %"struct.faiss::Repeat", ptr %30, i32 0, i32 1
  %32 = load i32, ptr %31, align 4, !tbaa !125
  %33 = load i32, ptr %4, align 4, !tbaa !13
  %34 = sub nsw i32 %33, %32
  store i32 %34, ptr %4, align 4, !tbaa !13
  br label %35

35:                                               ; preds = %16
  %36 = load i32, ptr %5, align 4, !tbaa !13
  %37 = add nsw i32 %36, 1
  store i32 %37, ptr %5, align 4, !tbaa !13
  br label %9, !llvm.loop !151

38:                                               ; preds = %15
  %39 = load i64, ptr %3, align 8, !tbaa !11
  call void @llvm.lifetime.end.p0(i64 4, ptr %4) #3
  call void @llvm.lifetime.end.p0(i64 8, ptr %3) #3
  ret i64 %39
}