; Function Attrs: mustprogress nofree norecurse nosync nounwind willreturn memory(read, inaccessiblemem: none) uwtable
define noundef i64 @_ZNK5faiss7Repeats5countEv(ptr noundef nonnull readonly align 8 captures(none) dereferenceable(32) %0) local_unnamed_addr #10 align 2 {
  %2 = getelementptr inbounds nuw i8, ptr %0, i64 8
  %3 = getelementptr inbounds nuw i8, ptr %0, i64 16
  %4 = load ptr, ptr %3, align 8, !tbaa !84
  %5 = load ptr, ptr %2, align 8, !tbaa !38
  %.not = icmp eq ptr %4, %5
  br i1 %.not, label %._crit_edge, label %.lr.ph

.lr.ph:                                           ; preds = %1
  %6 = ptrtoint ptr %4 to i64
  %7 = ptrtoint ptr %5 to i64
  %8 = sub i64 %6, %7
  %9 = ashr exact i64 %8, 3
  %10 = load i32, ptr %0, align 8, !tbaa !82
  %11 = load i32, ptr getelementptr inbounds nuw (i8, ptr @_ZN5faiss12_GLOBAL__N_14combE, i64 24), align 8
  %12 = load ptr, ptr @_ZN5faiss12_GLOBAL__N_14combE, align 8
  %umax = tail call i64 @llvm.umax.i64(i64 %9, i64 1)
  br label %13

._crit_edge:                                      ; preds = %_ZNK5faiss12_GLOBAL__N_14CombclEii.exit, %1
  %.09.lcssa = phi i64 [ 1, %1 ], [ %23, %_ZNK5faiss12_GLOBAL__N_14CombclEii.exit ]
  ret i64 %.09.lcssa

13:                                               ; preds = %.lr.ph, %_ZNK5faiss12_GLOBAL__N_14CombclEii.exit
  %indvars.iv = phi i64 [ 0, %.lr.ph ], [ %indvars.iv.next, %_ZNK5faiss12_GLOBAL__N_14CombclEii.exit ]
  %.0812 = phi i32 [ %10, %.lr.ph ], [ %24, %_ZNK5faiss12_GLOBAL__N_14CombclEii.exit ]
  %.0911 = phi i64 [ 1, %.lr.ph ], [ %23, %_ZNK5faiss12_GLOBAL__N_14CombclEii.exit ]
  %14 = getelementptr inbounds nuw %"struct.faiss::Repeat", ptr %5, i64 %indvars.iv, i32 1
  %15 = load i32, ptr %14, align 4, !tbaa !87
  %16 = icmp sgt i32 %15, %.0812
  br i1 %16, label %_ZNK5faiss12_GLOBAL__N_14CombclEii.exit, label %17

17:                                               ; preds = %13
  %18 = mul nsw i32 %11, %.0812
  %19 = add nsw i32 %18, %15
  %20 = sext i32 %19 to i64
  %21 = getelementptr inbounds nuw i64, ptr %12, i64 %20
  %22 = load i64, ptr %21, align 8, !tbaa !44
  br label %_ZNK5faiss12_GLOBAL__N_14CombclEii.exit

_ZNK5faiss12_GLOBAL__N_14CombclEii.exit:          ; preds = %13, %17
  %.0.i = phi i64 [ %22, %17 ], [ 0, %13 ]
  %23 = mul i64 %.0.i, %.0911
  %24 = sub nsw i32 %.0812, %15
  %indvars.iv.next = add nuw nsw i64 %indvars.iv, 1
  %exitcond.not = icmp eq i64 %indvars.iv.next, %umax
  br i1 %exitcond.not, label %._crit_edge, label %13, !llvm.loop !89
}